target datalayout = "e-m:e-p270:32:32-p271:32:32-p272:64:64-i64:64-i128:128-f80:128-n8:16:32:64-S128"
target triple = "x86_64-pc-linux-gnu"

@hf_ieee802154_hie_vendor_specific = internal global i32 0, align 4
@hf_ieee802154_hie_vendor_specific_vendor_oui = internal global i32 0, align 4
@hf_ieee802154_hie_vendor_specific_content = internal global i32 0, align 4
@ett_ieee802154_hie_vendor_specific = internal global i32 0, align 4

; Function Attrs: null_pointer_is_valid sspstrong uwtable
define internal i32 @dissect_hie_vendor_specific(ptr noundef %0, ptr noundef %1, ptr noundef %2, ptr noundef %3) #0 {
  %5 = alloca ptr, align 8
  %6 = alloca ptr, align 8
  %7 = alloca ptr, align 8
  %8 = alloca ptr, align 8
  %9 = alloca ptr, align 8
  %10 = alloca i32, align 4
  %11 = alloca i32, align 4
  store ptr %0, ptr %5, align 8
  store ptr %1, ptr %6, align 8
  store ptr %2, ptr %7, align 8
  store ptr %3, ptr %8, align 8
  call void @llvm.lifetime.start.p0(i64 8, ptr %9) #17
  %12 = load ptr, ptr %5, align 8
  %13 = load ptr, ptr %7, align 8
  %14 = load i32, ptr @hf_ieee802154_hie_vendor_specific, align 4
  %15 = load i32, ptr @ett_ieee802154_hie_vendor_specific, align 4
  %16 = call ptr @ieee802154_create_hie_tree(ptr noundef %12, ptr noundef %13, i32 noundef %14, i32 noundef %15)
  store ptr %16, ptr %9, align 8
  call void @llvm.lifetime.start.p0(i64 4, ptr %10) #17
  %17 = load ptr, ptr %5, align 8
  %18 = call i32 @tvb_reported_length(ptr noundef %17)
  %19 = sub i32 %18, 2
  store i32 %19, ptr %10, align 4
  call void @llvm.lifetime.start.p0(i64 4, ptr %11) #17
  store i32 2, ptr %11, align 4
  %20 = load ptr, ptr %5, align 8
  %21 = load i32, ptr %11, align 4
  %22 = call i32 @tvb_get_letoh24(ptr noundef %20, i32 noundef %21)
  %23 = load ptr, ptr %9, align 8
  %24 = load i32, ptr @hf_ieee802154_hie_vendor_specific_vendor_oui, align 4
  %25 = load ptr, ptr %5, align 8
  %26 = load i32, ptr %11, align 4
  %27 = call ptr @proto_tree_add_item(ptr noundef %23, i32 noundef %24, ptr noundef %25, i32 noundef %26, i32 noundef 3, i32 noundef -2147483648)
  %28 = load i32, ptr %11, align 4
  %29 = add i32 %28, 3
  store i32 %29, ptr %11, align 4
  %30 = load i32, ptr %10, align 4
  %31 = sub i32 %30, 3
  store i32 %31, ptr %10, align 4
  %32 = load ptr, ptr %9, align 8
  %33 = load i32, ptr @hf_ieee802154_hie_vendor_specific_content, align 4
  %34 = load ptr, ptr %5, align 8
  %35 = load i32, ptr %11, align 4
  %36 = load i32, ptr %10, align 4
  %37 = call ptr @proto_tree_add_item(ptr noundef %32, i32 noundef %33, ptr noundef %34, i32 noundef %35, i32 noundef %36, i32 noundef 0)
  %38 = load ptr, ptr %5, align 8
  %39 = call i32 @tvb_reported_length(ptr noundef %38)
  call void @llvm.lifetime.end.p0(i64 4, ptr %11) #17
  call void @llvm.lifetime.end.p0(i64 4, ptr %10) #17
  call void @llvm.lifetime.end.p0(i64 8, ptr %9) #17
  ret i32 %39
}