; Function Attrs: null_pointer_is_valid sspstrong uwtable
define internal i32 @dissect_hie_vendor_specific(ptr noundef %0, ptr readnone captures(none) %1, ptr noundef %2, ptr readnone captures(none) %3) #0 {
  %5 = load i32, ptr @hf_ieee802154_hie_vendor_specific, align 4
  %6 = load i32, ptr @ett_ieee802154_hie_vendor_specific, align 4
  %7 = tail call ptr @ieee802154_create_hie_tree(ptr noundef %0, ptr noundef %2, i32 noundef %5, i32 noundef %6)
  %8 = tail call i32 @tvb_reported_length(ptr noundef %0)
  %9 = tail call i32 @tvb_get_letoh24(ptr noundef %0, i32 noundef 2)
  %10 = load i32, ptr @hf_ieee802154_hie_vendor_specific_vendor_oui, align 4
  %11 = tail call ptr @proto_tree_add_item(ptr noundef %7, i32 noundef %10, ptr noundef %0, i32 noundef 2, i32 noundef 3, i32 noundef -2147483648)
  %12 = add i32 %8, -5
  %13 = load i32, ptr @hf_ieee802154_hie_vendor_specific_content, align 4
  %14 = tail call ptr @proto_tree_add_item(ptr noundef %7, i32 noundef %13, ptr noundef %0, i32 noundef 5, i32 noundef %12, i32 noundef 0)
  %15 = tail call i32 @tvb_reported_length(ptr noundef %0)
  ret i32 %15
}